target datalayout = "e-m:e-p270:32:32-p271:32:32-p272:64:64-i64:64-i128:128-f80:128-n8:16:32:64-S128"
target triple = "x86_64-pc-linux-gnu"

%struct.AVFormatContext = type { ptr, ptr, ptr, ptr, ptr, i32, i32, ptr, i32, ptr, i32, ptr, ptr, i64, i64, i64, i32, i32, i32, i64, i64, ptr, i32, i32, ptr, i32, i32, i32, i32, ptr, i64, i32, i32, %struct.AVIOInterruptCB, i32, i32, i32, i32, i64, i32, i32, i32, i32, i32, i32, i32, i32, i32, i32, i32, i32, i64, i32, i32, i32, i32, i32, ptr, ptr, ptr, ptr, i32, ptr, ptr, ptr, ptr, i32, ptr, ptr, i64, ptr, ptr, ptr, i64 }
%struct.AVIOInterruptCB = type { ptr, ptr }
%struct.MP3Context = type { ptr, %struct.ID3v2EncContext, i32, i32, i32, ptr, i32, i32, i32, i64, i32, i32, i32, i32, i32, i32, [400 x i64], i32, i32, i32, i32, i32, i32, %struct.PacketList }
%struct.ID3v2EncContext = type { i32, i64, i32 }
%struct.PacketList = type { ptr, ptr }
%struct.AVPacket = type { ptr, i64, i64, ptr, i32, i32, i32, ptr, i32, i64, i64, ptr, ptr, %struct.AVRational }
%struct.AVRational = type { i32, i32 }
%struct.AVStream = type { ptr, i32, i32, ptr, ptr, %struct.AVRational, i64, i64, i64, i32, i32, %struct.AVRational, ptr, %struct.AVRational, %struct.AVPacket, i32, %struct.AVRational, i32 }
%struct.AVCodecParameters = type { i32, i32, i32, ptr, i32, ptr, i32, i32, i64, i32, i32, i32, i32, i32, i32, %struct.AVRational, %struct.AVRational, i32, i32, i32, i32, i32, i32, i32, %struct.AVChannelLayout, i32, i32, i32, i32, i32, i32 }
%struct.AVChannelLayout = type { i32, i32, %union.anon.0, ptr }
%union.anon.0 = type { i64 }

@.str.39 = private unnamed_addr constant [77 x i8] c"Invalid ID3v2 version requested: %d. Only 3, 4 or 0 (disabled) are allowed.\0A\00", align 1
@.str.40 = private unnamed_addr constant [65 x i8] c"Invalid audio stream. Exactly one MP3 audio stream is required.\0A\00", align 1
@.str.41 = private unnamed_addr constant [53 x i8] c"Only audio streams and pictures are allowed in MP3.\0A\00", align 1
@.str.42 = private unnamed_addr constant [26 x i8] c"No audio stream present.\0A\00", align 1
@.str.43 = private unnamed_addr constant [69 x i8] c"Attached pictures were requested, but the ID3v2 header is disabled.\0A\00", align 1

; Function Attrs: nounwind uwtable
define internal i32 @mp3_init(ptr noundef %0) #0 {
  %2 = alloca i32, align 4
  %3 = alloca ptr, align 8
  %4 = alloca ptr, align 8
  %5 = alloca i32, align 4
  %6 = alloca i32, align 4
  %7 = alloca ptr, align 8
  store ptr %0, ptr %3, align 8, !tbaa !4
  call void @llvm.lifetime.start.p0(i64 8, ptr %4) #12
  %8 = load ptr, ptr %3, align 8, !tbaa !4
  %9 = getelementptr inbounds nuw %struct.AVFormatContext, ptr %8, i32 0, i32 3
  %10 = load ptr, ptr %9, align 8, !tbaa !9
  store ptr %10, ptr %4, align 8, !tbaa !26
  call void @llvm.lifetime.start.p0(i64 4, ptr %5) #12
  %11 = load ptr, ptr %4, align 8, !tbaa !26
  %12 = getelementptr inbounds nuw %struct.MP3Context, ptr %11, i32 0, i32 2
  %13 = load i32, ptr %12, align 8, !tbaa !28
  %14 = icmp ne i32 %13, 0
  br i1 %14, label %15, label %30

15:                                               ; preds = %1
  %16 = load ptr, ptr %4, align 8, !tbaa !26
  %17 = getelementptr inbounds nuw %struct.MP3Context, ptr %16, i32 0, i32 2
  %18 = load i32, ptr %17, align 8, !tbaa !28
  %19 = icmp ne i32 %18, 3
  br i1 %19, label %20, label %30

20:                                               ; preds = %15
  %21 = load ptr, ptr %4, align 8, !tbaa !26
  %22 = getelementptr inbounds nuw %struct.MP3Context, ptr %21, i32 0, i32 2
  %23 = load i32, ptr %22, align 8, !tbaa !28
  %24 = icmp ne i32 %23, 4
  br i1 %24, label %25, label %30

25:                                               ; preds = %20
  %26 = load ptr, ptr %3, align 8, !tbaa !4
  %27 = load ptr, ptr %4, align 8, !tbaa !26
  %28 = getelementptr inbounds nuw %struct.MP3Context, ptr %27, i32 0, i32 2
  %29 = load i32, ptr %28, align 8, !tbaa !28
  call void (ptr, i32, ptr, ...) @av_log(ptr noundef %26, i32 noundef 16, ptr noundef @.str.39, i32 noundef %29)
  store i32 -22, ptr %2, align 4
  store i32 1, ptr %6, align 4
  br label %114

30:                                               ; preds = %20, %15, %1
  %31 = load ptr, ptr %4, align 8, !tbaa !26
  %32 = getelementptr inbounds nuw %struct.MP3Context, ptr %31, i32 0, i32 21
  store i32 -1, ptr %32, align 8, !tbaa !44
  store i32 0, ptr %5, align 4, !tbaa !34
  br label %33

33:                                               ; preds = %85, %30
  %34 = load i32, ptr %5, align 4, !tbaa !34
  %35 = load ptr, ptr %3, align 8, !tbaa !4
  %36 = getelementptr inbounds nuw %struct.AVFormatContext, ptr %35, i32 0, i32 6
  %37 = load i32, ptr %36, align 4, !tbaa !59
  %38 = icmp ult i32 %34, %37
  br i1 %38, label %39, label %88

39:                                               ; preds = %33
  call void @llvm.lifetime.start.p0(i64 8, ptr %7) #12
  %40 = load ptr, ptr %3, align 8, !tbaa !4
  %41 = getelementptr inbounds nuw %struct.AVFormatContext, ptr %40, i32 0, i32 7
  %42 = load ptr, ptr %41, align 8, !tbaa !45
  %43 = load i32, ptr %5, align 4, !tbaa !34
  %44 = sext i32 %43 to i64
  %45 = getelementptr inbounds ptr, ptr %42, i64 %44
  %46 = load ptr, ptr %45, align 8, !tbaa !46
  store ptr %46, ptr %7, align 8, !tbaa !46
  %47 = load ptr, ptr %7, align 8, !tbaa !46
  %48 = getelementptr inbounds nuw %struct.AVStream, ptr %47, i32 0, i32 3
  %49 = load ptr, ptr %48, align 8, !tbaa !60
  %50 = getelementptr inbounds nuw %struct.AVCodecParameters, ptr %49, i32 0, i32 0
  %51 = load i32, ptr %50, align 8, !tbaa !61
  %52 = icmp eq i32 %51, 1
  br i1 %52, label %53, label %71

53:                                               ; preds = %39
  %54 = load ptr, ptr %4, align 8, !tbaa !26
  %55 = getelementptr inbounds nuw %struct.MP3Context, ptr %54, i32 0, i32 21
  %56 = load i32, ptr %55, align 8, !tbaa !44
  %57 = icmp sge i32 %56, 0
  br i1 %57, label %65, label %58

58:                                               ; preds = %53
  %59 = load ptr, ptr %7, align 8, !tbaa !46
  %60 = getelementptr inbounds nuw %struct.AVStream, ptr %59, i32 0, i32 3
  %61 = load ptr, ptr %60, align 8, !tbaa !60
  %62 = getelementptr inbounds nuw %struct.AVCodecParameters, ptr %61, i32 0, i32 1
  %63 = load i32, ptr %62, align 4, !tbaa !64
  %64 = icmp ne i32 %63, 86017
  br i1 %64, label %65, label %67

65:                                               ; preds = %58, %53
  %66 = load ptr, ptr %3, align 8, !tbaa !4
  call void (ptr, i32, ptr, ...) @av_log(ptr noundef %66, i32 noundef 16, ptr noundef @.str.40)
  store i32 -22, ptr %2, align 4
  store i32 1, ptr %6, align 4
  br label %82

67:                                               ; preds = %58
  %68 = load i32, ptr %5, align 4, !tbaa !34
  %69 = load ptr, ptr %4, align 8, !tbaa !26
  %70 = getelementptr inbounds nuw %struct.MP3Context, ptr %69, i32 0, i32 21
  store i32 %68, ptr %70, align 8, !tbaa !44
  br label %81

71:                                               ; preds = %39
  %72 = load ptr, ptr %7, align 8, !tbaa !46
  %73 = getelementptr inbounds nuw %struct.AVStream, ptr %72, i32 0, i32 3
  %74 = load ptr, ptr %73, align 8, !tbaa !60
  %75 = getelementptr inbounds nuw %struct.AVCodecParameters, ptr %74, i32 0, i32 0
  %76 = load i32, ptr %75, align 8, !tbaa !61
  %77 = icmp ne i32 %76, 0
  br i1 %77, label %78, label %80

78:                                               ; preds = %71
  %79 = load ptr, ptr %3, align 8, !tbaa !4
  call void (ptr, i32, ptr, ...) @av_log(ptr noundef %79, i32 noundef 16, ptr noundef @.str.41)
  store i32 -22, ptr %2, align 4
  store i32 1, ptr %6, align 4
  br label %82

80:                                               ; preds = %71
  br label %81

81:                                               ; preds = %80, %67
  store i32 0, ptr %6, align 4
  br label %82

82:                                               ; preds = %81, %78, %65
  call void @llvm.lifetime.end.p0(i64 8, ptr %7) #12
  %83 = load i32, ptr %6, align 4
  switch i32 %83, label %114 [
    i32 0, label %84
  ]

84:                                               ; preds = %82
  br label %85

85:                                               ; preds = %84
  %86 = load i32, ptr %5, align 4, !tbaa !34
  %87 = add nsw i32 %86, 1
  store i32 %87, ptr %5, align 4, !tbaa !34
  br label %33, !llvm.loop !65

88:                                               ; preds = %33
  %89 = load ptr, ptr %4, align 8, !tbaa !26
  %90 = getelementptr inbounds nuw %struct.MP3Context, ptr %89, i32 0, i32 21
  %91 = load i32, ptr %90, align 8, !tbaa !44
  %92 = icmp slt i32 %91, 0
  br i1 %92, label %93, label %95

93:                                               ; preds = %88
  %94 = load ptr, ptr %3, align 8, !tbaa !4
  call void (ptr, i32, ptr, ...) @av_log(ptr noundef %94, i32 noundef 16, ptr noundef @.str.42)
  store i32 -22, ptr %2, align 4
  store i32 1, ptr %6, align 4
  br label %114

95:                                               ; preds = %88
  %96 = load ptr, ptr %3, align 8, !tbaa !4
  %97 = getelementptr inbounds nuw %struct.AVFormatContext, ptr %96, i32 0, i32 6
  %98 = load i32, ptr %97, align 4, !tbaa !59
  %99 = sub i32 %98, 1
  %100 = load ptr, ptr %4, align 8, !tbaa !26
  %101 = getelementptr inbounds nuw %struct.MP3Context, ptr %100, i32 0, i32 22
  store i32 %99, ptr %101, align 4, !tbaa !35
  %102 = load ptr, ptr %4, align 8, !tbaa !26
  %103 = getelementptr inbounds nuw %struct.MP3Context, ptr %102, i32 0, i32 22
  %104 = load i32, ptr %103, align 4, !tbaa !35
  %105 = icmp ne i32 %104, 0
  br i1 %105, label %106, label %113

106:                                              ; preds = %95
  %107 = load ptr, ptr %4, align 8, !tbaa !26
  %108 = getelementptr inbounds nuw %struct.MP3Context, ptr %107, i32 0, i32 2
  %109 = load i32, ptr %108, align 8, !tbaa !28
  %110 = icmp ne i32 %109, 0
  br i1 %110, label %113, label %111

111:                                              ; preds = %106
  %112 = load ptr, ptr %3, align 8, !tbaa !4
  call void (ptr, i32, ptr, ...) @av_log(ptr noundef %112, i32 noundef 16, ptr noundef @.str.43)
  store i32 -22, ptr %2, align 4
  store i32 1, ptr %6, align 4
  br label %114

113:                                              ; preds = %106, %95
  store i32 0, ptr %2, align 4
  store i32 1, ptr %6, align 4
  br label %114

114:                                              ; preds = %113, %111, %93, %82, %25
  call void @llvm.lifetime.end.p0(i64 4, ptr %5) #12
  call void @llvm.lifetime.end.p0(i64 8, ptr %4) #12
  %115 = load i32, ptr %2, align 4
  ret i32 %115
}