; Function Attrs: nounwind uwtable
define internal range(i32 -22, 1) i32 @mp3_init(ptr noundef %0) #0 {
  %2 = getelementptr inbounds nuw i8, ptr %0, i64 24
  %3 = load ptr, ptr %2, align 8, !tbaa !4
  %4 = getelementptr inbounds nuw i8, ptr %3, i64 32
  %5 = load i32, ptr %4, align 8, !tbaa !24
  switch i32 %5, label %6 [
    i32 0, label %7
    i32 3, label %7
    i32 4, label %7
  ]

6:                                                ; preds = %1
  tail call void (ptr, i32, ptr, ...) @av_log(ptr noundef nonnull %0, i32 noundef 16, ptr noundef nonnull @.str.39, i32 noundef %5) #12
  br label %.critedge

7:                                                ; preds = %1, %1, %1
  %8 = getelementptr inbounds nuw i8, ptr %3, i64 3320
  store i32 -1, ptr %8, align 8, !tbaa !37
  %9 = getelementptr inbounds nuw i8, ptr %0, i64 44
  %10 = load i32, ptr %9, align 4, !tbaa !86
  %.not = icmp eq i32 %10, 0
  br i1 %.not, label %._crit_edge.thread, label %.lr.ph

.lr.ph:                                           ; preds = %7
  %11 = getelementptr inbounds nuw i8, ptr %0, i64 48
  %12 = load ptr, ptr %11, align 8, !tbaa !44
  %wide.trip.count = zext i32 %10 to i64
  br label %13

13:                                               ; preds = %.lr.ph, %29
  %14 = phi i32 [ -1, %.lr.ph ], [ %30, %29 ]
  %indvars.iv = phi i64 [ 0, %.lr.ph ], [ %indvars.iv.next, %29 ]
  %15 = getelementptr inbounds nuw ptr, ptr %12, i64 %indvars.iv
  %16 = load ptr, ptr %15, align 8, !tbaa !45
  %17 = getelementptr inbounds nuw i8, ptr %16, i64 16
  %18 = load ptr, ptr %17, align 8, !tbaa !65
  %19 = load i32, ptr %18, align 8, !tbaa !87
  switch i32 %19, label %28 [
    i32 1, label %20
    i32 0, label %29
  ]

20:                                               ; preds = %13
  %21 = icmp sgt i32 %14, -1
  br i1 %21, label %25, label %22

22:                                               ; preds = %20
  %23 = getelementptr inbounds nuw i8, ptr %18, i64 4
  %24 = load i32, ptr %23, align 4, !tbaa !88
  %.not38 = icmp eq i32 %24, 86017
  br i1 %.not38, label %26, label %25

25:                                               ; preds = %22, %20
  tail call void (ptr, i32, ptr, ...) @av_log(ptr noundef nonnull %0, i32 noundef 16, ptr noundef nonnull @.str.40) #12
  br label %.critedge

26:                                               ; preds = %22
  %27 = trunc nuw nsw i64 %indvars.iv to i32
  store i32 %27, ptr %8, align 8, !tbaa !37
  br label %29

28:                                               ; preds = %13
  tail call void (ptr, i32, ptr, ...) @av_log(ptr noundef nonnull %0, i32 noundef 16, ptr noundef nonnull @.str.41) #12
  br label %.critedge

29:                                               ; preds = %13, %26
  %30 = phi i32 [ %14, %13 ], [ %27, %26 ]
  %indvars.iv.next = add nuw nsw i64 %indvars.iv, 1
  %exitcond.not = icmp eq i64 %indvars.iv.next, %wide.trip.count
  br i1 %exitcond.not, label %._crit_edge, label %13, !llvm.loop !89

._crit_edge:                                      ; preds = %29
  %31 = icmp slt i32 %30, 0
  br i1 %31, label %._crit_edge.thread, label %32

._crit_edge.thread:                               ; preds = %7, %._crit_edge
  tail call void (ptr, i32, ptr, ...) @av_log(ptr noundef nonnull %0, i32 noundef 16, ptr noundef nonnull @.str.42) #12
  br label %.critedge

32:                                               ; preds = %._crit_edge
  %33 = add i32 %10, -1
  %34 = getelementptr inbounds nuw i8, ptr %3, i64 3324
  store i32 %33, ptr %34, align 4, !tbaa !30
  %.not35 = icmp ne i32 %33, 0
  %.not36 = icmp eq i32 %5, 0
  %or.cond = and i1 %.not36, %.not35
  br i1 %or.cond, label %35, label %.critedge

35:                                               ; preds = %32
  tail call void (ptr, i32, ptr, ...) @av_log(ptr noundef nonnull %0, i32 noundef 16, ptr noundef nonnull @.str.43) #12
  br label %.critedge

.critedge:                                        ; preds = %25, %28, %32, %35, %._crit_edge.thread, %6
  %.0 = phi i32 [ -22, %6 ], [ -22, %._crit_edge.thread ], [ -22, %35 ], [ 0, %32 ], [ -22, %28 ], [ -22, %25 ]
  ret i32 %.0
}